target datalayout = "e-m:e-p270:32:32-p271:32:32-p272:64:64-i64:64-i128:128-f80:128-n8:16:32:64-S128"
target triple = "x86_64-pc-linux-gnu"

%struct._address = type { i32, i32, ptr, ptr }
%struct._packet_info = type { ptr, ptr, i32, i32, %struct.nstime_t, %struct.nstime_t, %struct.nstime_t, i8, ptr, ptr, ptr, ptr, %struct._address, %struct._address, %struct._address, %struct._address, %struct._address, %struct._address, i32, ptr, i8, [3 x i8], %struct.anon.0, i32, i32, i32, i32, ptr, i8, ptr, ptr, i16, i16, i32, i32, i16, i32, i32, ptr, ptr, ptr, i8, i8, i16, i16, i16, i32, i16, i16, ptr, ptr, ptr, ptr, ptr, i32, i32 }
%struct.nstime_t = type { i64, i32 }
%struct.anon.0 = type { i8, [3 x i8] }
%struct.conversation_addr_port_endpoints = type { %struct._address, %struct._address, i32, i32, i32 }

; Function Attrs: inlinehint nounwind null_pointer_is_valid sspstrong uwtable
define internal void @clear_address(ptr noundef %0) #9 {
  %2 = alloca ptr, align 8
  store ptr %0, ptr %2, align 8
  %3 = load ptr, ptr %2, align 8
  %4 = getelementptr inbounds nuw %struct._address, ptr %3, i32 0, i32 0
  store i32 0, ptr %4, align 8
  %5 = load ptr, ptr %2, align 8
  %6 = getelementptr inbounds nuw %struct._address, ptr %5, i32 0, i32 1
  store i32 0, ptr %6, align 4
  %7 = load ptr, ptr %2, align 8
  %8 = getelementptr inbounds nuw %struct._address, ptr %7, i32 0, i32 2
  store ptr null, ptr %8, align 8
  %9 = load ptr, ptr %2, align 8
  %10 = getelementptr inbounds nuw %struct._address, ptr %9, i32 0, i32 3
  store ptr null, ptr %10, align 8
  ret void
}

; Function Attrs: inlinehint null_pointer_is_valid sspstrong uwtable
define internal void @alloc_address_wmem(ptr noundef %0, ptr noundef %1, i32 noundef %2, i32 noundef %3, ptr noundef %4) #7 {
  %6 = alloca ptr, align 8
  %7 = alloca ptr, align 8
  %8 = alloca i32, align 4
  %9 = alloca i32, align 4
  %10 = alloca ptr, align 8
  store ptr %0, ptr %6, align 8
  store ptr %1, ptr %7, align 8
  store i32 %2, ptr %8, align 4
  store i32 %3, ptr %9, align 4
  store ptr %4, ptr %10, align 8
  br label %11

11:                                               ; preds = %5
  br label %12

12:                                               ; preds = %11
  %13 = load ptr, ptr %7, align 8
  call void @clear_address(ptr noundef %13)
  %14 = load i32, ptr %8, align 4
  %15 = load ptr, ptr %7, align 8
  %16 = getelementptr inbounds nuw %struct._address, ptr %15, i32 0, i32 0
  store i32 %14, ptr %16, align 8
  %17 = load i32, ptr %9, align 4
  %18 = icmp eq i32 %17, 0
  br i1 %18, label %19, label %22

19:                                               ; preds = %12
  br label %20

20:                                               ; preds = %19
  br label %21

21:                                               ; preds = %20
  br label %39

22:                                               ; preds = %12
  br label %23

23:                                               ; preds = %22
  br label %24

24:                                               ; preds = %23
  br label %25

25:                                               ; preds = %24
  br label %26

26:                                               ; preds = %25
  %27 = load ptr, ptr %6, align 8
  %28 = load ptr, ptr %10, align 8
  %29 = load i32, ptr %9, align 4
  %30 = sext i32 %29 to i64
  %31 = call ptr @wmem_memdup(ptr noundef %27, ptr noundef %28, i64 noundef %30) #15
  %32 = load ptr, ptr %7, align 8
  %33 = getelementptr inbounds nuw %struct._address, ptr %32, i32 0, i32 3
  store ptr %31, ptr %33, align 8
  %34 = load ptr, ptr %7, align 8
  %35 = getelementptr inbounds nuw %struct._address, ptr %34, i32 0, i32 2
  store ptr %31, ptr %35, align 8
  %36 = load i32, ptr %9, align 4
  %37 = load ptr, ptr %7, align 8
  %38 = getelementptr inbounds nuw %struct._address, ptr %37, i32 0, i32 1
  store i32 %36, ptr %38, align 4
  br label %39

39:                                               ; preds = %26, %21
  ret void
}

; Function Attrs: inlinehint null_pointer_is_valid sspstrong uwtable
define internal void @copy_address_wmem(ptr noundef %0, ptr noundef %1, ptr noundef %2) #7 {
  %4 = alloca ptr, align 8
  %5 = alloca ptr, align 8
  %6 = alloca ptr, align 8
  store ptr %0, ptr %4, align 8
  store ptr %1, ptr %5, align 8
  store ptr %2, ptr %6, align 8
  %7 = load ptr, ptr %4, align 8
  %8 = load ptr, ptr %5, align 8
  %9 = load ptr, ptr %6, align 8
  %10 = getelementptr inbounds nuw %struct._address, ptr %9, i32 0, i32 0
  %11 = load i32, ptr %10, align 8
  %12 = load ptr, ptr %6, align 8
  %13 = getelementptr inbounds nuw %struct._address, ptr %12, i32 0, i32 1
  %14 = load i32, ptr %13, align 4
  %15 = load ptr, ptr %6, align 8
  %16 = getelementptr inbounds nuw %struct._address, ptr %15, i32 0, i32 2
  %17 = load ptr, ptr %16, align 8
  call void @alloc_address_wmem(ptr noundef %7, ptr noundef %8, i32 noundef %11, i32 noundef %14, ptr noundef %17)
  ret void
}

; Function Attrs: null_pointer_is_valid sspstrong uwtable
define void @conversation_set_conv_addr_port_endpoints(ptr noundef %0, ptr noundef %1, ptr noundef %2, i32 noundef %3, i32 noundef %4, i32 noundef %5) #0 {
  %7 = alloca ptr, align 8
  %8 = alloca ptr, align 8
  %9 = alloca ptr, align 8
  %10 = alloca i32, align 4
  %11 = alloca i32, align 4
  %12 = alloca i32, align 4
  store ptr %0, ptr %7, align 8
  store ptr %1, ptr %8, align 8
  store ptr %2, ptr %9, align 8
  store i32 %3, ptr %10, align 4
  store i32 %4, ptr %11, align 4
  store i32 %5, ptr %12, align 4
  %13 = load ptr, ptr %7, align 8
  %14 = getelementptr inbounds nuw %struct._packet_info, ptr %13, i32 0, i32 51
  %15 = load ptr, ptr %14, align 8
  %16 = call noalias ptr @wmem_alloc0(ptr noundef %15, i64 noundef 64) #16
  %17 = load ptr, ptr %7, align 8
  %18 = getelementptr inbounds nuw %struct._packet_info, ptr %17, i32 0, i32 29
  store ptr %16, ptr %18, align 8
  %19 = load ptr, ptr %8, align 8
  %20 = icmp ne ptr %19, null
  br i1 %20, label %21, label %30

21:                                               ; preds = %6
  %22 = load ptr, ptr %7, align 8
  %23 = getelementptr inbounds nuw %struct._packet_info, ptr %22, i32 0, i32 51
  %24 = load ptr, ptr %23, align 8
  %25 = load ptr, ptr %7, align 8
  %26 = getelementptr inbounds nuw %struct._packet_info, ptr %25, i32 0, i32 29
  %27 = load ptr, ptr %26, align 8
  %28 = getelementptr inbounds nuw %struct.conversation_addr_port_endpoints, ptr %27, i32 0, i32 0
  %29 = load ptr, ptr %8, align 8
  call void @copy_address_wmem(ptr noundef %24, ptr noundef %28, ptr noundef %29)
  br label %30

30:                                               ; preds = %21, %6
  %31 = load ptr, ptr %9, align 8
  %32 = icmp ne ptr %31, null
  br i1 %32, label %33, label %42

33:                                               ; preds = %30
  %34 = load ptr, ptr %7, align 8
  %35 = getelementptr inbounds nuw %struct._packet_info, ptr %34, i32 0, i32 51
  %36 = load ptr, ptr %35, align 8
  %37 = load ptr, ptr %7, align 8
  %38 = getelementptr inbounds nuw %struct._packet_info, ptr %37, i32 0, i32 29
  %39 = load ptr, ptr %38, align 8
  %40 = getelementptr inbounds nuw %struct.conversation_addr_port_endpoints, ptr %39, i32 0, i32 1
  %41 = load ptr, ptr %9, align 8
  call void @copy_address_wmem(ptr noundef %36, ptr noundef %40, ptr noundef %41)
  br label %42

42:                                               ; preds = %33, %30
  %43 = load i32, ptr %10, align 4
  %44 = load ptr, ptr %7, align 8
  %45 = getelementptr inbounds nuw %struct._packet_info, ptr %44, i32 0, i32 29
  %46 = load ptr, ptr %45, align 8
  %47 = getelementptr inbounds nuw %struct.conversation_addr_port_endpoints, ptr %46, i32 0, i32 4
  store i32 %43, ptr %47, align 8
  %48 = load i32, ptr %11, align 4
  %49 = load ptr, ptr %7, align 8
  %50 = getelementptr inbounds nuw %struct._packet_info, ptr %49, i32 0, i32 29
  %51 = load ptr, ptr %50, align 8
  %52 = getelementptr inbounds nuw %struct.conversation_addr_port_endpoints, ptr %51, i32 0, i32 2
  store i32 %48, ptr %52, align 8
  %53 = load i32, ptr %12, align 4
  %54 = load ptr, ptr %7, align 8
  %55 = getelementptr inbounds nuw %struct._packet_info, ptr %54, i32 0, i32 29
  %56 = load ptr, ptr %55, align 8
  %57 = getelementptr inbounds nuw %struct.conversation_addr_port_endpoints, ptr %56, i32 0, i32 3
  store i32 %53, ptr %57, align 4
  %58 = load ptr, ptr %7, align 8
  %59 = getelementptr inbounds nuw %struct._packet_info, ptr %58, i32 0, i32 28
  store i8 1, ptr %59, align 8
  ret void
}