; Function Attrs: null_pointer_is_valid sspstrong uwtable
define void @conversation_set_conv_addr_port_endpoints(ptr noundef captures(none) initializes((304, 305), (312, 320)) %0, ptr noundef readonly captures(address_is_null) %1, ptr noundef readonly captures(address_is_null) %2, i32 noundef %3, i32 noundef %4, i32 noundef %5) local_unnamed_addr #0 {
  %7 = getelementptr inbounds nuw i8, ptr %0, i64 408
  %8 = load ptr, ptr %7, align 8
  %9 = tail call noalias dereferenceable_or_null(64) ptr @wmem_alloc0(ptr noundef %8, i64 noundef 64) #19
  %10 = getelementptr inbounds nuw i8, ptr %0, i64 312
  store ptr %9, ptr %10, align 8
  %.not = icmp eq ptr %1, null
  br i1 %.not, label %copy_address_wmem.exit, label %11

11:                                               ; preds = %6
  %12 = load ptr, ptr %7, align 8
  %13 = load i32, ptr %1, align 8
  %14 = getelementptr inbounds nuw i8, ptr %1, i64 4
  %15 = load i32, ptr %14, align 4
  %16 = getelementptr inbounds nuw i8, ptr %1, i64 8
  %17 = load ptr, ptr %16, align 8
  tail call void @llvm.memset.p0.i64(ptr noundef align 8 dereferenceable(24) %9, i8 0, i64 24, i1 false)
  store i32 %13, ptr %9, align 8
  %18 = icmp eq i32 %15, 0
  br i1 %18, label %copy_address_wmem.exit, label %19

19:                                               ; preds = %11
  %20 = sext i32 %15 to i64
  %21 = tail call ptr @wmem_memdup(ptr noundef %12, ptr noundef %17, i64 noundef %20) #18
  %22 = getelementptr inbounds nuw i8, ptr %9, i64 16
  store ptr %21, ptr %22, align 8
  %23 = getelementptr inbounds nuw i8, ptr %9, i64 8
  store ptr %21, ptr %23, align 8
  %24 = getelementptr inbounds nuw i8, ptr %9, i64 4
  store i32 %15, ptr %24, align 4
  br label %copy_address_wmem.exit

copy_address_wmem.exit:                           ; preds = %19, %11, %6
  %.not17 = icmp eq ptr %2, null
  br i1 %.not17, label %copy_address_wmem.exit18, label %25

25:                                               ; preds = %copy_address_wmem.exit
  %26 = load ptr, ptr %7, align 8
  %27 = load ptr, ptr %10, align 8
  %28 = getelementptr inbounds nuw i8, ptr %27, i64 24
  %29 = load i32, ptr %2, align 8
  %30 = getelementptr inbounds nuw i8, ptr %2, i64 4
  %31 = load i32, ptr %30, align 4
  %32 = getelementptr inbounds nuw i8, ptr %2, i64 8
  %33 = load ptr, ptr %32, align 8
  tail call void @llvm.memset.p0.i64(ptr noundef nonnull align 8 dereferenceable(24) %28, i8 0, i64 24, i1 false)
  store i32 %29, ptr %28, align 8
  %34 = icmp eq i32 %31, 0
  br i1 %34, label %copy_address_wmem.exit18, label %35

35:                                               ; preds = %25
  %36 = sext i32 %31 to i64
  %37 = tail call ptr @wmem_memdup(ptr noundef %26, ptr noundef %33, i64 noundef %36) #18
  %38 = getelementptr inbounds nuw i8, ptr %27, i64 40
  store ptr %37, ptr %38, align 8
  %39 = getelementptr inbounds nuw i8, ptr %27, i64 32
  store ptr %37, ptr %39, align 8
  %40 = getelementptr inbounds nuw i8, ptr %27, i64 28
  store i32 %31, ptr %40, align 4
  br label %copy_address_wmem.exit18

copy_address_wmem.exit18:                         ; preds = %35, %25, %copy_address_wmem.exit
  %41 = load ptr, ptr %10, align 8
  %42 = getelementptr inbounds nuw i8, ptr %41, i64 56
  store i32 %3, ptr %42, align 8
  %43 = load ptr, ptr %10, align 8
  %44 = getelementptr inbounds nuw i8, ptr %43, i64 48
  store i32 %4, ptr %44, align 8
  %45 = load ptr, ptr %10, align 8
  %46 = getelementptr inbounds nuw i8, ptr %45, i64 52
  store i32 %5, ptr %46, align 4
  %47 = getelementptr inbounds nuw i8, ptr %0, i64 304
  store i8 1, ptr %47, align 8
  ret void
}